; Function Attrs: mustprogress uwtable
define void @_ZNK5boost4urls12ipv6_address14to_string_implERNS0_12string_token3argE(ptr noundef nonnull align 1 dereferenceable(16) %0, ptr noundef nonnull align 8 dereferenceable(8) %1) local_unnamed_addr #5 align 2 {
  %3 = alloca [49 x i8], align 16
  call void @llvm.lifetime.start.p0(i64 49, ptr nonnull %3) #23
  %4 = call noundef i64 @_ZNK5boost4urls12ipv6_address10print_implEPc(ptr noundef nonnull align 1 dereferenceable(16) %0, ptr noundef nonnull %3) #23
  %5 = load ptr, ptr %1, align 8, !tbaa !26
  %6 = load ptr, ptr %5, align 8
  %7 = call noundef ptr %6(ptr noundef nonnull align 8 dereferenceable(8) %1, i64 noundef %4)
  call void @llvm.memcpy.p0.p0.i64(ptr align 1 %7, ptr nonnull align 16 %3, i64 %4, i1 false)
  call void @llvm.lifetime.end.p0(i64 49, ptr nonnull %3) #23
  ret void
}